(dp0
S'testFilterByChildLastNameNoResult'
p1
I1
sS'testBadLetter'
p2
I1
sS'testSetFloatOrNull'
p3
I1
sS'testGetWardRoomsByStatus'
p4
I0
sS'testGetRepresentativeName'
p5
I1
sS'testEdit'
p6
I1
sS'testGetAllMyMessagesNameDescending'
p7
I1
sS'testEmptyPatientDateOfBirth'
p8
I0
sS'testGetPatientDataByDate'
p9
I1
sS'testGetSessionUserRole'
p10
I1
sS'testCalculatePatientAgeWithNulls'
p11
I1
sS'testGetCurrentPatientMID'
p12
I1
sS'testFilterByStreetAddrNoResult'
p13
I1
sS'testAssignHCPToHospitalBadID'
p14
I1
sS'testConvertMap'
p15
I1
sS'testGroupReportGeneratorServletPost'
p16
I1
sS'testJustification'
p17
I0
sS'testAddRemoteMonitoringDataBloodPressureOnly'
p18
I1
sS'testCheckLTHospital'
p19
I1
sS'testNoIncrementCollision'
p20
I1
sS'testFilterByEmerContactName'
p21
I1
sS'testGetLabProcedureCode'
p22
I0
sS'testCheckWrongRole'
p23
I1
sS'testSetRepresenteeList'
p24
I1
sS'testSessionDestroyed'
p25
I1
sS'testDefaultWithList'
p26
I1
sS'testAddApptType'
p27
I1
sS'testLogLabTechnicianViewLabProcedureQueue'
p28
I1
sS'testComparator'
p29
I1
sS'testGetByCode'
p30
I1
sS'testIsRateable'
p31
I1
sS'testHospitalIDPunct'
p32
I1
sS'testIsRestricted'
p33
I0
sS'testDeactivatedUser'
p34
I1
sS'testPending'
p35
I0
sS'testGetBillID'
p36
I1
sS'testGetHouseholdSmokingStatus'
p37
I1
sS'testRemovePersonnelAssignmentToHospital'
p38
I1
sS'testGetNonExistentPersonnel'
p39
I1
sS'testMID'
p40
I1
sS'testCheckIsNullableEmpty'
p41
I0
sS'testAllCorrect'
p42
I1
sS'testSQLErrors'
p43
I1
sS'testPid'
p44
I0
sS'testGetTestingLabProceduresByTechnician'
p45
I1
sS'testSendEmail'
p46
I0
sS'testGetAllMyMessagesFromNameAscending'
p47
I1
sS'testInvalidFirstFound'
p48
I0
sS'testGetReportsCheckListRequester'
p49
I1
sS'testGender'
p50
I0
sS'testGetDeclaredHCPs'
p51
I1
sS'testGetDeclared'
p52
I1
sS'testGetChildOfficeVisitsForCurrentPatient'
p53
I1
sS'testGetAllMyBills'
p54
I1
sS'testICDCode'
p55
I0
sS'testGetAverageRating'
p56
I1
sS'testGetHospitalsException'
p57
I0
sS'testInvalidLabProcedureCode'
p58
I0
sS'testGetUpdatedDate'
p59
I0
sS'testGetReportsCheckListPatient'
p60
I1
sS'testDocFirstName'
p61
I0
sS'testUpdateApptRequest'
p62
I1
sS'testEditApptType'
p63
I1
sS'testGetApptsTable'
p64
I1
sS'testFirstFound'
p65
I0
sS'testGetAllMyMessagesNameAscending'
p66
I1
sS'testHospitalInList'
p67
I1
sS'testGetPatientDOBWithInvalidDataSource'
p68
I1
sS'testGetPersonnel2'
p69
I1
sS'testAddORCode'
p70
I1
sS'testEditRepresentatives'
p71
I1
sS'testGetLDL'
p72
I1
sS'testGoodICDAnotherInt'
p73
I1
sS'testInvalidMID'
p74
I1
sS'testUpdateCodeException'
p75
I0
sS'testNotAuthorized'
p76
I1
sS'testEvilDAOFactory'
p77
I1
sS'testGetAllMyMessagesTimeAscending'
p78
I1
sS'testGetPatientMID'
p79
I1
sS'testFilterByICAddress2'
p80
I1
sS'testGetSubmitter'
p81
I1
sS'testGetPrescriptionsForCurrentPatient'
p82
I1
sS'testEditApptType2'
p83
I1
sS'testXmlEmpty'
p84
I0
sS'testGetAllSiblings'
p85
I1
sS'testGetFilterType'
p86
I1
sS'testBadStoreRetrievePatientNormalDataBad'
p87
I1
sS'testGetSelectedVisitWithNullVisitId'
p88
I1
sS'testBadCapital'
p89
I1
sS'testAssignHCPToWard'
p90
I0
sS'testCurrentPatientHasVisited'
p91
I1
sS'testFilterBySiblingFirstNameNoResult'
p92
I1
sS'testUnDeclareNormal'
p93
I1
sS'testSetConfidenceIntervalLower'
p94
I0
sS'testGetPresciberMID'
p95
I0
sS'testLDL'
p96
I0
sS'testFilterByChildLastName'
p97
I1
sS'testValidatePasswordNull'
p98
I1
sS'testTypeDBExceptions'
p99
I1
sS'testFields'
p100
I0
sS'testCheckLongValues'
p101
I1
sS'testApproveClaim'
p102
I1
sS'testMFWithPersonnelMID'
p103
I1
sS'testHasPatientVisitedWithNulls'
p104
I1
sS'testUpdateWardRoomOccupant'
p105
I0
sS'testGetNonCompletedLabProceduresByOfficeVisit'
p106
I1
sS'testLogViewPrescriptionReport'
p107
I1
sS'testSetViewedFailure'
p108
I1
sS'testDeclareMalformed'
p109
I0
sS'testFilterByZipNoResult'
p110
I1
sS'testGetFilterStrings'
p111
I1
sS'testNotPatient200'
p112
I1
sS'testEditPersonnelException'
p113
I0
sS'testIllegalGetPatientDataByDate1'
p114
I1
sS'testImmunizations'
p115
I0
sS'testNonExistent'
p116
I1
sS'testValidLabProcedure'
p117
I1
sS'testGetChildrenWithPerson'
p118
I1
sS'testCheckHCPID'
p119
I1
sS'testUnDeclareMalformed'
p120
I0
sS'testAddBadRemoteMonitoringPedometerReadingData'
p121
I1
sS'testEditPersonnelZipCode'
p122
I1
sS'testListEmailsByPerson'
p123
I1
sS'testBadICDLengthSecond'
p124
I1
sS'testGetAdultOfficeVisitsForCurrentPatient'
p125
I1
sS'testConstructors'
p126
I0
sS'testRemoveWard'
p127
I0
sS'testFirstName'
p128
I0
sS'testGetAllAccessException'
p129
I0
sS'testFilterByLastNameNoResult'
p130
I1
sS'testWardRoomCRUDServletPost'
p131
I1
sS'testPrescriptions'
p132
I0
sS'testRemoveRepresentativeException'
p133
I0
sS'testGetSecurityQuestion'
p134
I1
sS'testFuzzySearchForPatient2'
p135
I1
sS'testFuzzySearchForPatient3'
p136
I1
sS'testFuzzySearchForPatient1'
p137
I1
sS'testRemoveNDCode'
p138
I1
sS'testProductionConnnectionDriver'
p139
I1
sS'testAddWithPatient'
p140
I1
sS'testAcceptApptRequest'
p141
I1
sS'testSetLabProcedureToReceivedStatusException'
p142
I1
sS'testInsertReport1'
p143
I1
sS'testGetLabProceduresByOfficeVisit'
p144
I1
sS'testMockDataSource'
p145
I1
sS'testHospitalAllErrors'
p146
I1
sS'testGetUnpaidBills'
p147
I1
sS'testGetBills'
p148
I1
sS'testBloodPressure'
p149
I0
sS'testIsPatientInList'
p150
I1
sS'testSetUpdatedDate'
p151
I0
sS'testCheckIsNullable'
p152
I1
sS'testGetMyRepresentees'
p153
I1
sS'testUpdateNDInformation0'
p154
I1
sS'testGetNoParents'
p155
I1
sS'testGetSomeAccesses'
p156
I1
sS'testFilterByOnlyDeactivated'
p157
I1
sS'testFuzzySearchForExpert'
p158
I1
sS'testBadStoreRetrievePatientBPOnlyDataBad'
p159
I1
sS'testGetAllMyMessages'
p160
I1
sS'testGetWeight'
p161
I1
sS'testInvalidConfidenceIntervalLower'
p162
I0
sS'testGetReceivedLabProceduresByTechnician'
p163
I1
sS'testRepresentsFalse'
p164
I1
sS'testFilterByICAddress3'
p165
I1
sS'testRebuildNoException'
p166
I1
sS'testCheckAnswerNull'
p167
I1
sS'testZeroPatients'
p168
I1
sS'testAddNotNumber'
p169
I1
sS'testSpecialty'
p170
I0
sS'testUpdateDescription'
p171
I1
sS'testSetCommentary'
p172
I0
sS'testListAllEmails'
p173
I1
sS'testICDCodeMySQL'
p174
I1
sS'testFilterByInvalidUpperAge'
p175
I1
sS'testEqualsOkayToBeOverloaded'
p176
I0
sS'testEditBill'
p177
I1
sS'testGetFormatted'
p178
I0
sS'testMakeStr'
p179
I0
sS'testOverloadedConstructor'
p180
I0
sS'testGetConfidenceIntervalUpper'
p181
I0
sS'testValidateEmail'
p182
I0
sS'testReportInteractionThatExistsReverseOrder'
p183
I1
sS'testRemoveRepresentative'
p184
I1
sS'testGetLongStatus'
p185
I1
sS'testChangePassword'
p186
I1
sS'testCheckHCPIDEvil'
p187
I1
sS'testAddRemoveFromList'
p188
I1
sS'testDateRequested'
p189
I0
sS'testtwoPatient'
p190
I0
sS'testMIDLength'
p191
I1
sS'testNonPatientAddRepresentative'
p192
I1
sS'testHCP0'
p193
I1
sS'testNoDataSource'
p194
I1
sS'testGetSendBill'
p195
I1
sS'testgetAllWardsByHospitalID'
p196
I0
sS'testInvalidCommentary'
p197
I0
sS'testNotInt'
p198
I1
sS'testGetDependents'
p199
I1
sS'testGetNoneRepresented'
p200
I1
sS'testAddPHA'
p201
I1
sS'testResetSecurityQuestionAnswer'
p202
I1
sS'testUpdateICDInformation0'
p203
I1
sS'testGetClaims'
p204
I1
sS'testResetPasswordException'
p205
I0
sS'testGetAllCodesException'
p206
I0
sS'testHospitalIDNegative'
p207
I1
sS'testFilterByMID'
p208
I1
sS'testGetException'
p209
I0
sS'testRemoveNonExistent'
p210
I1
sS'testInvalidStatus'
p211
I0
sS'testConstructor'
p212
I1
sS'testGettersAndSetters'
p213
I0
sS'testIsAbleToRate'
p214
I1
sS'testGetMessageAsSentence'
p215
I1
sS'testGetMyDLHCPs'
p216
I1
sS'testForm'
p217
I1
sS'testAddMessage'
p218
I1
sS'testAddPatient'
p219
I1
sS'testRemoveRepresentee'
p220
I1
sS'testGetPrescriptionsForPatientEndingAfter'
p221
I1
sS'testSearchForPersonnelWithName3'
p222
I1
sS'testSearchForPersonnelWithName2'
p223
I1
sS'testInvalidDates'
p224
I1
sS'testCheckGenderNull'
p225
I0
sS'testAddAppt2'
p226
I1
sS'testVisitId'
p227
I0
sS'testGet'
p228
I1
sS'testGetAllReviews'
p229
I1
sS'testGetPendingLabProceduresByTechnician'
p230
I1
sS'testAddApptRequest'
p231
I1
sS'testLoadSingle'
p232
I1
sS'testSetPriority'
p233
I0
sS'testResetForHCP'
p234
I1
sS'testNDCodeMySQL'
p235
I1
sS'testDeclareDuplicateHCP'
p236
I1
sS'testEditPatient2'
p237
I1
sS'testRemoveInvalidID'
p238
I1
sS'testDuplicateField'
p239
I1
sS'testAddAllergyException'
p240
I0
sS'testgetAllWardsByHCP'
p241
I0
sS'testDBException'
p242
I1
sS'testGetTotalAverageRating'
p243
I1
sS'testSetDependent'
p244
I1
sS'testUndeclareHCPException'
p245
I0
sS'testSearchForPatientsWithName2'
p246
I1
sS'testSearchForPatientsWithName3'
p247
I1
sS'testAddOfficeVisitWithInvalidDate'
p248
I1
sS'testSetLabProcedureToReceivedStatusDBException'
p249
I1
sS'testGetTransactions'
p250
I1
sS'testWardRoomCRUDServletDelete'
p251
I1
sS'testGetFilterValue'
p252
I1
sS'testInHospital'
p253
I0
sS'testGoodAnswerTwoParts'
p254
I1
sS'testRoomName'
p255
I0
sS'testGetOfficeVisitsForCurrentPatientWithInvalidMID'
p256
I1
sS'testOffSite'
p257
I1
sS'testPatientNavException'
p258
I0
sS'testInvalidLDL'
p259
I1
sS'testAppointment'
p260
I1
sS'testGetPersonnelName'
p261
I1
sS'testCalculatePatientAge'
p262
I1
sS'testGetOfficeVisitsForPatientWithException'
p263
I1
sS'testCPTCodeMySQL'
p264
I1
sS'testFilterBySiblingLastNameNoResult'
p265
I1
sS'testBadLetters'
p266
I1
sS'testGetEvilReportRequest'
p267
I1
sS'testEditPersonnel2'
p268
I1
sS'testPatientWithValidCardNumbers'
p269
I1
sS'testDeclareAdmin'
p270
I1
sS'testAddUAP'
p271
I1
sS'testAddHCP'
p272
I1
sS'testGetAllEmergencyDiagnosis'
p273
I1
sS'testRemoveNonExistingRepresentative'
p274
I1
sS'testStatus'
p275
I0
sS'testgetAllWardRoomsByWardID'
p276
I0
sS'testGetters'
p277
I1
sS'testB'
p278
I1
sS'testException'
p279
I0
sS'testGetComprehensiveMedicalInfo'
p280
I1
sS'testInvalidConfidenceIntervalUpper'
p281
I0
sS'testFilterByState'
p282
I1
sS'testIsPatientAChild'
p283
I1
sS'testReportAlreadyAdded'
p284
I1
sS'testInvalidHSS'
p285
I1
sS'testFilterByChildFirstName'
p286
I1
sS'testCSVCommaInField'
p287
I1
sS'testMIDNegative'
p288
I1
sS'testGetHospital'
p289
I1
sS'testFilterByICState'
p290
I1
sS'testRecordLoginFailureException'
p291
I0
sS'testAddThenSetViewed'
p292
I1
sS'testCauseOfDeathValidation'
p293
I1
sS'testGetPatient2'
p294
I1
sS'testFilterByParentLastName2'
p295
I1
sS'testGetPatient1'
p296
I1
sS'testViewPersonnel'
p297
I1
sS'testAddUpdateAndDelete'
p298
I1
sS'testGetMonitoringHCPs'
p299
I1
sS'testRemoveHospitalAssignmentException'
p300
I0
sS'testGetAssignedHospitalsBadMID'
p301
I1
sS'testUpdateWard'
p302
I0
sS'testUpdateInformationCorrectly'
p303
I1
sS'testDeclareHCP'
p304
I1
sS'getCompletedLabProceduresByTechnician'
p305
I1
sS'testAddRemoteMonitoringPedometerReadingDataOnly'
p306
I1
sS'testPrescriptionEquals'
p307
I0
sS'testGetPatientDataByType'
p308
I1
sS'testAttributes'
p309
I0
sS'testGetListOfRepresentees'
p310
I1
sS'testGetCCdMessages'
p311
I1
sS'testGetConflictForAppointment'
p312
I1
sS'testStoreRetrievePatientNormalData'
p313
I1
sS'testGetApptType'
p314
I1
sS'testReportSameDrugsInteraction'
p315
I1
sS'testClosingNullPS'
p316
I1
sS'testGetTelemedicineBean'
p317
I1
sS'testIDWithNumber'
p318
I1
sS'testGetPatientl'
p319
I1
sS'testNotAuthorized2'
p320
I1
sS'testEditCOD'
p321
I1
sS'testRetrieveOfficeVisit'
p322
I1
sS'testGetNDCodeFromEmptyTable'
p323
I1
sS'testProdConstructor'
p324
I0
sS'testAddRepresentative'
p325
I1
sS'testChecked'
p326
I0
sS'testGetPatients'
p327
I1
sS'testDate'
p328
I0
sS'testAddEmptyPersonnelException'
p329
I0
sS'testMessage'
p330
I1
sS'testHDL'
p331
I0
sS'testGetFloatOrNull'
p332
I0
sS'testNonAuditSearch'
p333
I1
sS'testAllergies'
p334
I0
sS'testGetAllReviewsEvilDAO'
p335
I1
sS'testValidOfficeVisit'
p336
I1
sS'testWardCRUDServletDelete'
p337
I1
sS'testGetMyUnpaidBills'
p338
I1
sS'testFilterByICID'
p339
I1
sS'testGetAllMyMessagesFromTimeAscending'
p340
I1
sS'testParseLong'
p341
I1
sS'testNotOverloaded'
p342
I0
sS'testFilterByGender'
p343
I1
sS'testInvalidHcpMID'
p344
I0
sS'testGetUAPHospitalsException'
p345
I0
sS'testNoMatch'
p346
I1
sS'testPatientSmokingStatusDescription'
p347
I1
sS'testNotes'
p348
I0
sS'testSetIntOrNull'
p349
I1
sS'testGetVisitID'
p350
I1
sS'testGenerateReport'
p351
I1
sS'testWrongFormat'
p352
I1
sS'testAddWithDBException'
p353
I1
sS'testGetRequestedAppt'
p354
I0
sS'testEmptyAuditSearch'
p355
I1
sS'testFilterByProcedure'
p356
I1
sS'testGetOfficeVisitsForPatientWithHCPPid'
p357
I1
sS'testCheckLTIDStringMID'
p358
I1
sS'testSetStatusString'
p359
I0
sS'testPersonnelHospitals'
p360
I1
sS'testGetMyDLHCPs2'
p361
I1
sS'testOkayBean1'
p362
I0
sS'testLogViewOfficeVisitNoneSelected'
p363
I1
sS'testRequiredFieldMissing'
p364
I1
sS'testAssignNewHospital'
p365
I1
sS'testInvalidHDL'
p366
I1
sS'testRoomID'
p367
I0
sS'testGetHCPUser'
p368
I1
sS'testFilterByFirstNameNoResult'
p369
I1
sS'testDiagnosisForm'
p370
I1
sS'testGetConflicts'
p371
I1
sS'testLength'
p372
I0
sS'testCheckUserExistsException'
p373
I0
sS'testGetRepresentedException'
p374
I0
sS'testSubmit'
p375
I1
sS'testCheckRole'
p376
I1
sS'testRenameDrugs'
p377
I1
sS'testEvilFactory'
p378
I1
sS'testGetString'
p379
I1
sS'testHospitalIDGood'
p380
I1
sS'testPatientAllErrors'
p381
I1
sS'testFilterByUpperAgeNoResult'
p382
I1
sS'testGetDate'
p383
I1
sS'testFilterByICPhone'
p384
I1
sS'testPatientNavHappy'
p385
I0
sS'testGetNonExistentRepresented'
p386
I1
sS'testAppointmentPatientConflict'
p387
I1
sS'testBloodType'
p388
I0
sS'testGoodQuestion'
p389
I1
sS'testGetPersonException'
p390
I0
sS'testGetHashCode'
p391
I0
sS'testIsPatientABaby'
p392
I1
sS'testRepresentsTrue'
p393
I1
sS'testFilterByParentFirstNameNoResult'
p394
I1
sS'testNull'
p395
I1
sS'testExceptions'
p396
I1
sS'testFilterByAllergy'
p397
I1
sS'testWardCRUDServletPutFail'
p398
I1
sS'testStateSelectException'
p399
I0
sS'testGetHCPInstead'
p400
I0
sS'testFamilyMemberException'
p401
I0
sS'testGoodICDMore'
p402
I1
sS'testFilterByAllergyNoResult'
p403
I1
sS'testPhoneBadLength'
p404
I1
sS'testGetHDL'
p405
I1
sS'testSetIsRestricted'
p406
I0
sS'testSetSecurityQuestionAnswer'
p407
I0
sS'testNotesTooLong'
p408
I1
sS'testBadConnection'
p409
I1
sS'testHospitalNameTooLong'
p410
I1
sS'testGetAllHospitals'
p411
I1
sS'testMockGetPrescriptionsForPatientEndingAfter'
p412
I0
sS'testAdd500WithHCP'
p413
I1
sS'testSetSessionTimeoutException'
p414
I0
sS'testBadRequestedDate'
p415
I1
sS'testGetApptTypes'
p416
I1
sS'testResetPassword'
p417
I1
sS'testRemoveAllHospitalAssignmentsException'
p418
I0
sS'testDeclareNormal'
p419
I1
sS'testCode'
p420
I0
sS'testGetLoincCodesEmpty'
p421
I1
sS'testCheckPersonnelExistsException'
p422
I0
sS'testWardRoomCRUDServletPutFail'
p423
I1
sS'testFilterByContactPhoneNoResult'
p424
I1
sS'testUpdateInformation'
p425
I1
sS'testUserExists'
p426
I1
sS'testFilterMessages'
p427
I1
sS'testRemoveHCPtoHospitalBadID'
p428
I1
sS'testAddExistingRepresentative'
p429
I1
sS'testAllTransactionsException'
p430
I0
sS'testDelete'
p431
I1
sS'testGetUserRoleException'
p432
I0
sS'testFilterByEmerContactNameNoResult'
p433
I1
sS'testGetInteractions'
p434
I1
sS'testValidatePasswordWrong'
p435
I1
sS'testFullConstructor'
p436
I0
sS'testUpdateRecordsRelease'
p437
I1
sS'testAssignHCPToHospital'
p438
I1
sS'testWardCRUDServletPostFail'
p439
I1
sS'testEmergencyContactInfo'
p440
I1
sS'testLoadParameters'
p441
I1
sS'testHeight'
p442
I0
sS'testLoadList'
p443
I1
sS'testValidatePasswordEmpty'
p444
I1
sS'testUnDeclareHCP'
p445
I1
sS'testValidData'
p446
I1
sS'testDeactivated'
p447
I1
sS'testGetSecurityAnswer'
p448
I0
sS'testAddRemoteMonitoringData'
p449
I1
sS'testSetInvalidHospital'
p450
I1
sS'testCorrectFormat'
p451
I1
sS'testInvalidHeader'
p452
I1
sS'testParseFilters'
p453
I1
sS'testRemoveNonAssigned'
p454
I1
sS'testGetInTransitLabProceduresByTechnician'
p455
I1
sS'testCSVEndsWhileInQuote'
p456
I1
sS'testFilterByFirstName'
p457
I1
sS'testGetInteractions2'
p458
I1
sS'testPatient1'
p459
I1
sS'testGetAllergiesFor2'
p460
I1
sS'testDiabolicals'
p461
I1
sS'getRepParameter'
p462
I1
sS'testAddBadRemoteMonitoringGlucoseLevelData'
p463
I1
sS'testAddDuplicate'
p464
I1
sS'testGetEmptyPatient'
p465
I1
sS'testAddReviewValid'
p466
I1
sS'testCheckMIDEvil'
p467
I1
sS'testLastName'
p468
I0
sS'testDeactivateActivate'
p469
I1
sS'testSecondaryMIDHCP'
p470
I1
sS'testGetPrescriptionsForOfficeVisit'
p471
I1
sS'testHospitalIDLetter'
p472
I1
sS'testWrongNumberFields'
p473
I1
sS'testAddWard'
p474
I0
sS'testAddBill'
p475
I1
sS'testWeight'
p476
I0
sS'testUpdateNonExistent'
p477
I1
sS'testPatient'
p478
I1
sS'testSecondaryMIDUAP'
p479
I1
sS'testResetPasswordNonExistent'
p480
I1
sS'testIsLabProcedureCreated'
p481
I1
sS'testFilterByProcedureNoResult'
p482
I1
sS'testFilterByStreetAddr1'
p483
I1
sS'testFilterByStreetAddr2'
p484
I1
sS'testFilterByStreetAddr3'
p485
I1
sS'testSecondaryMIDPatient'
p486
I1
sS'testFilterByInsuranceZipNoResult'
p487
I1
sS'testGetWardRoom'
p488
I0
sS'testWardCRUDServletPut'
p489
I1
sS'testNormalLoginFailureSequence'
p490
I1
sS'testGetAllMyMessagesFromNameDescending'
p491
I1
sS'testAddEmptyER'
p492
I1
sS'testRecordAccessesException'
p493
I0
sS'testAddEmptyPatient'
p494
I1
sS'testIsPatientAnAdult'
p495
I1
sS'testLogViewOfficeVisit'
p496
I1
sS'testGetLoincCodes'
p497
I1
sS'testGetPatientException'
p498
I0
sS'testAge10'
p499
I0
sS'testFullChange'
p500
I1
sS'testNotANumber'
p501
I1
sS'testGetSelectedLabProcedure'
p502
I1
sS'testGetAllException'
p503
I0
sS'testLogViewLabProcedure'
p504
I1
sS'testGetLoginFailuresWithEntry'
p505
I1
sS'testGetSessionLoggedInMIDLong'
p506
I1
sS'testGetSessionTimeoutException'
p507
I0
sS'testListenerWorked'
p508
I1
sS'testNameNoLetters'
p509
I1
sS'testUnDeclareNotDeclared'
p510
I1
sS'testEscapeCharacters'
p511
I1
sS'testGetOfficeVisitsForCurrentPatient'
p512
I1
sS'testRecordResetPasswordFailure'
p513
I0
sS'testInvalidResults'
p514
I0
sS'testDocLastName'
p515
I0
sS'testNotesGood'
p516
I1
sS'testHouseholdSmokingStatus'
p517
I0
sS'testUpdateUserPrefs'
p518
I1
sS'testAddRecordsRelease'
p519
I1
sS'testAddBadRemoteMonitoringWeightData'
p520
I1
sS'testIsValidForLoginEvil'
p521
I1
sS'testBadParse'
p522
I0
sS'testDLHCPAccessesHidden'
p523
I1
sS'testGetAllImmunizations'
p524
I1
sS'testBigMID'
p525
I0
sS'testInvalidTriglyceride'
p526
I1
sS'testRemove'
p527
I1
sS'testPersonnelBeanSecurity'
p528
I0
sS'testUpdateName'
p529
I1
sS'testGetNumRequest'
p530
I1
sS'testIsCommentable'
p531
I1
sS'testgetAllHCPsAssignedToWard'
p532
I0
sS'testAddToRemoveFromList'
p533
I1
sS'testGetOfficeVisitID'
p534
I0
sS'testRemoveHCPAssignmentsBadID'
p535
I1
sS'testGetPatientDOB'
p536
I1
sS'testFilterByParentLastName'
p537
I1
sS'testSetViewedToZero'
p538
I1
sS'testFilterByInvalidLowerAge'
p539
I1
sS'testAddEmptyPatientException'
p540
I0
sS'testSetLabProcedureCode'
p541
I0
sS'testGetMyAppointments'
p542
I1
sS'testRemoveBill'
p543
I1
sS'testRepresentativeReportStatus'
p544
I1
sS'testProxyIsOnlyProxy'
p545
I0
sS'testAddRepresentee'
p546
I1
sS'testGetCompletedLabProceduresByOfficeVisit'
p547
I1
sS'testIsCommentableBadLong'
p548
I1
sS'testSubmitReassignment'
p549
I1
sS'testInvalidLabProcedureID'
p550
I1
sS'testError'
p551
I1
sS'testGetDeclaredHCPsException'
p552
I1
sS'testInvalidPatient'
p553
I1
sS'testLogTransaction'
p554
I1
sS'testAddApptType2'
p555
I1
sS'testDeleteInteraction'
p556
I1
sS'testGetSecurityQuestionEvil'
p557
I1
sS'testFilterByPhone'
p558
I1
sS'testAddHospital2'
p559
I1
sS'testGetAllergiesFor1'
p560
I1
sS'testAddReturnGeneratedId'
p561
I1
sS'testInvalidPriority'
p562
I0
sS'testAddRemoteMonitoringWeightDataOnly'
p563
I1
sS'testRecHospitalAddress'
p564
I0
sS'testAddApptTypeLengthZero'
p565
I1
sS'testDeclareAlreadyDeclared'
p566
I1
sS'testApptTypeID'
p567
I1
sS'testAssignHCPToHospitalEvil'
p568
I1
sS'testConstructNormal'
p569
I1
sS'testId'
p570
I0
sS'testPatientSmokingStatus'
p571
I0
sS'testRejectApptRequest'
p572
I1
sS'testRemoveWardRoom'
p573
I0
sS'testGetAccessesByRole'
p574
I1
sS'testInvalidWeight'
p575
I1
sS'testGetPatientNames'
p576
I1
sS'testDateGood'
p577
I1
sS'testCheckDouble'
p578
I1
sS'testGetHospitalFromEmptyTable'
p579
I1
sS'testFutureBirthError'
p580
I1
sS'testGetLabTechnicianID'
p581
I0
sS'testAddUserException'
p582
I0
sS'testFilterTypeFromString'
p583
I1
sS'testAddOfficeVisitWithFacesContext'
p584
I1
sS'testID'
p585
I0
sS'testGetVisitsForPatient'
p586
I1
sS'testGetUnreadCount'
p587
I1
sS'testFuzzySearchForPatientDeactivatedOverride'
p588
I1
sS'testInvalidLength'
p589
I1
sS'testEquals'
p590
I1
sS'testEditPersonnel'
p591
I1
sS'testGetLabProceduresByOfficeVisitSQLException'
p592
I0
sS'testGetReportRequests3'
p593
I1
sS'testGetPrescriptionByID'
p594
I1
sS'testGetSelectedVisit'
p595
I1
sS'testSetTypeAndValue'
p596
I0
sS'testWardRoomCRUDServletDeleteFail'
p597
I1
sS'testCSVParseData'
p598
I1
sS'testGetPendingNum'
p599
I1
sS'testFilterByContactEmailNoResult'
p600
I1
sS'testCPTCodeForm'
p601
I1
sS'testContactName'
p602
I0
sS'testAddRepException'
p603
I1
sS'testContactPhone'
p604
I0
sS'testAssignHospitalException'
p605
I0
sS'testHospitalNameBadChars'
p606
I1
sS'testSetCaptcha'
p607
I1
sS'testSetSQLMonthRange0'
p608
I0
sS'testSetSQLMonthRange1'
p609
I0
sS'testAddWardRoom'
p610
I0
sS'testSetLabTechnicianID'
p611
I0
sS'testGetNextAvailableAppts'
p612
I1
sS'testReportInteractionThatExists'
p613
I1
sS'testDoItTwice'
p614
I1
sS'testGetNextID'
p615
I1
sS'testloadSingle'
p616
I1
sS'testCloseConnection'
p617
I1
sS'testHCPMeganHunt'
p618
I1
sS'testAddER'
p619
I1
sS'testFilterByParentFirstName'
p620
I1
sS'testInsertReportFailureNullMIDs'
p621
I1
sS'testAddAppt'
p622
I1
sS'testRemovePatientFromListBad'
p623
I1
sS'testGetLoginFailures15MinutesAgo'
p624
I1
sS'testGetNotes'
p625
I1
sS'testStateSelect'
p626
I0
sS'testHospitalIDLength'
p627
I1
sS'testSetResults'
p628
I0
sS'testGetPatientLogged'
p629
I1
sS'testGetRepresentatives'
p630
I1
sS'testNeedsCaptcha'
p631
I1
sS'testInvalidBloodPressure'
p632
I1
sS'testCanAccessProductionDriver'
p633
I1
sS'testWardRoomCRUDServletPut'
p634
I1
sS'testFilterByParentLastNameNoResult'
p635
I1
sS'testGetLoincCodesDBException'
p636
I1
sS'testGetResults'
p637
I0
sS'testNameCheckTooLong'
p638
I1
sS'testDoGetAuditHttpServletRequestHttpServletResponse'
p639
I1
sS'testFuzzySearch'
p640
I1
sS'testUnDeclareNotDeclaredHCP'
p641
I1
sS'testLogViewEmergencyRecord'
p642
I1
sS'testGetReportsUnknownRequeter'
p643
I1
sS'testReleaseID'
p644
I0
sS'testInvalidData'
p645
I1
sS'testSearchForPatientsWithName'
p646
I1
sS'testAdmin1'
p647
I1
sS'testLoadRecord'
p648
I1
sS'testDoubleValues'
p649
I1
sS'testNotAPatient'
p650
I1
sS'testGetAccessesIllegalUser'
p651
I1
sS'testEverything'
p652
I1
sS'testPhoneWithLetter'
p653
I1
sS'testShortCode'
p654
I0
sS'testAddRemoteMonitoringDataBloodPressureOnlyUAP'
p655
I1
sS'testRemoveAllEvil'
p656
I1
sS'testHospitalNameTooShort'
p657
I1
sS'testCannotRepresentSelf'
p658
I1
sS'testNullForm'
p659
I1
sS'testGoodAnswer'
p660
I1
sS'testParse'
p661
I1
sS'testPayBillWithIns'
p662
I1
sS'testFilterByExcludeDeactivated'
p663
I1
sS'testGetHospitalException'
p664
I0
sS'testFilterByZip'
p665
I1
sS'testGetPersonnel'
p666
I1
sS'testController'
p667
I1
sS'testChangeTimeout'
p668
I1
sS'testGetCurrentPatientMIDLong'
p669
I1
sS'testGetEmpty'
p670
I1
sS'testInvalidHeight'
p671
I1
sS'testCheckMIDEvil2'
p672
I1
sS'testCheckPatientExistsException'
p673
I0
sS'testAddThenRetrieveReport'
p674
I1
sS'testGetRepresented'
p675
I1
sS'testHeadCircumference'
p676
I0
sS'testGetViewablePatients'
p677
I1
sS'testLoginFailuresException'
p678
I0
sS'testInvalidHeadCircumference'
p679
I1
sS'testFilterByLastName'
p680
I1
sS'testGetAllHospitalsException'
p681
I0
sS'testDocPhone'
p682
I0
sS'testInvalidApptID'
p683
I1
sS'testWardRoomCRUDServletFail'
p684
I1
sS'testRemoveAll'
p685
I1
sS'testThrowsExceptions'
p686
I1
sS'testFilterByCityNoResult'
p687
I1
sS'testRecordLoginFailureEvil'
p688
I1
sS'testCheckFormatStringStringValidationFormatBoolean'
p689
I1
sS'testGetLabProceduresByLabTechnicianSingleResult'
p690
I1
sS'testAddLT'
p691
I1
sS'testGoodICD'
p692
I1
sS'testGetPatientData'
p693
I1
sS'testYearsFromNow'
p694
I0
sS'testRepresentsException'
p695
I0
sS'testAdd'
p696
I1
sS'testCPTCode'
p697
I0
sS'testAddRemoteMonitoringDataGlucoseOnlyUAP'
p698
I1
sS'testGetLabProcedureID'
p699
I0
sS'testGetNoSecurityAnswer'
p700
I1
sS'testValidatePR'
p701
I1
sS'testCheckInt'
p702
I1
sS'testAddInvalid'
p703
I1
sS'testBean'
p704
I0
sS'testiTrustException'
p705
I1
sS'testGetNameException'
p706
I0
sS'testSetStatusLong'
p707
I0
sS'testAddRemoteMonitoringDataGlucoseOnly'
p708
I1
sS'testLoadFile'
p709
I1
sS'testGetApptTypeID'
p710
I1
sS'testNotUserID'
p711
I1
sS'testGetApprovedNum'
p712
I1
sS'testGetFilterTypeString'
p713
I1
sS'testAddAddress'
p714
I1
sS'testRemoveWard2'
p715
I0
sS'testFilterBySiblingFirstName'
p716
I1
sS'testGetLocationID'
p717
I1
sS'testBadStoreRetrievePatientGlucoseOnlyDataBad'
p718
I1
sS'testReportRequestBean'
p719
I1
sS'testGetFilters'
p720
I1
sS'testDocEmail'
p721
I0
sS'testGetOfficeVisitsForPatientWithNullPid'
p722
I1
sS'testHouseholdSmokingStatusDescriptionInvalidID'
p723
I0
sS'testGetLabProceduresByLabTechnicianMultipleResults'
p724
I1
sS'testGetAppt'
p725
I1
sS'testGetBabyOfficeVisitsForCurrentPatient'
p726
I1
sS'testGetVisitByIDWithInvalidID'
p727
I1
sS'testRemovaAllUnassigned'
p728
I1
sS'testGetHeadCircumference'
p729
I1
sS'testNullConfirm'
p730
I1
sS'testIsRemovable'
p731
I1
sS'testAccepted'
p732
I0
sS'testWardCRUDServletDeleteFail'
p733
I1
sS'testIsReassignable'
p734
I1
sS'testGetLength'
p735
I1
sS'testAverageRatingEvilDAO'
p736
I1
sS'testNoPersonnel'
p737
I1
sS'testUpdateWardRoom'
p738
I0
sS'testValids'
p739
I1
sS'testPatientWithBadCardNumbers'
p740
I0
sS'testGetIntOrNull'
p741
I0
sS'testAddRemoteMonitoringExternalDataOnly'
p742
I1
sS'testAgeZero'
p743
I0
sS'testFindExperts'
p744
I1
sS'testValidatePRError'
p745
I1
sS'testInvalidLabTechnicianID'
p746
I0
sS'testGoodEmail'
p747
I1
sS'testBadNumber'
p748
I1
sS'testEvilFactory2'
p749
I1
sS'testICDCodeForm'
p750
I1
sS'testNameLotsOfBadStuff'
p751
I1
sS'testLabProcedure'
p752
I1
sS'testGetDrug'
p753
I0
sS'testGetPatientName'
p754
I1
sS'testGlucoseLevel'
p755
I0
sS'testFindHospitalsBySpecialty'
p756
I1
sS'testGetApptRequest'
p757
I1
sS'testGetCodeName'
p758
I1
sS'testLogFull'
p759
I1
sS'testEditApptConflict'
p760
I1
sS'testGoodEmailWithPlus'
p761
I1
sS'testGetTriglyceride'
p762
I1
sS'testPatientAllCorrect'
p763
I1
sS'testHospitalBean'
p764
I0
sS'testBadICDLengthFirst'
p765
I1
sS'testGetPhysician'
p766
I1
sS'testGetAllMySentMessages'
p767
I1
sS'testWardID'
p768
I0
sS'testPhoneGood'
p769
I1
sS'testGetOperationalProfile'
p770
I1
sS'testFilterByPhoneNoResult'
p771
I1
sS'testDoGetHttpServletRequestHttpServletResponse'
p772
I1
sS'testAddRemoteMonitoringHeightWeightDataOnly'
p773
I1
sS'testFilterByICCity'
p774
I1
sS'testPersonnelException'
p775
I0
sS'testDiagnoses'
p776
I0
sS'testName'
p777
I0
sS'testAddInvalidReview'
p778
I1
sS'testGetAllHealthRecordsByPid'
p779
I1
sS'testA'
p780
I1
sS'testFilterByContactEmail'
p781
I1
sS'testAddCommentary'
p782
I1
sS'testGetReviewsEvilDAO'
p783
I1
sS'testAddCodeException'
p784
I0
sS'testGetAllFromEmptyTable'
p785
I1
sS'testRemoveNothing'
p786
I1
sS'testGetDeniedNum'
p787
I1
sS'testInsertDeath'
p788
I1
sS'testEvilDatabase'
p789
I1
sS'testO'
p790
I1
sS'testBadLength'
p791
I1
sS'testGetSpecificReport4CheckDetails'
p792
I1
sS'testGetAll'
p793
I1
sS'testGoodICDInt'
p794
I1
sS'testEvilAction'
p795
I1
sS'testGetLabProcedure'
p796
I1
sS'testAddBadRemoteMonitoringData'
p797
I1
sS'testAge'
p798
I0
sS'testToString'
p799
I1
sS'testRoomStatus'
p800
I0
sS'testUpdateInvalid'
p801
I0
sS'testGetLabTechnicianStatusMID'
p802
I1
sS'testCorrectValidation'
p803
I0
sS'testGetInstance'
p804
I1
sS'testGetPriority'
p805
I0
sS'testToList'
p806
I0
sS'testSendMessage'
p807
I1
sS'testGetAvailableHospitals'
p808
I1
sS'testRecHospitalName'
p809
I0
sS'testUpdateBadTimeout'
p810
I1
sS'testActivatedUser'
p811
I1
sS'testGetCurrentOfficeVisitId'
p812
I1
sS'testLabProcedureForm'
p813
I1
sS'testGetPatientSmokingStatus'
p814
I1
sS'testGetLoginFailuresWithEntry5'
p815
I1
sS'testSurveyBean'
p816
I1
sS'testSetConfidenceIntervalUpper'
p817
I0
sS'testGetPatient'
p818
I1
sS'testGetSessionLoggedInMID'
p819
I1
sS'testGetComprehensiveDemographicInfo'
p820
I1
sS'testMIDLetter'
p821
I1
sS'testFilterHospitals'
p822
I1
sS'testFilterByZip2'
p823
I1
sS'testCheckDeclared'
p824
I1
sS'testGetName2'
p825
I1
sS'testGetAccessesBadData'
p826
I1
sS'testReleaseHospitalID'
p827
I0
sS'testLocationID'
p828
I1
sS'testRemoveAllRepresented'
p829
I1
sS'testGetName'
p830
I1
sS'testGoodFormatMultipleAtSymbol'
p831
I1
sS'testReportInteraction'
p832
I1
sS'testGetPatientConflictForAppointment'
p833
I1
sS'testGetByID'
p834
I1
sS'testCheckMID'
p835
I1
sS'testGetPrescriptionsForMID'
p836
I1
sS'testUpdateRead'
p837
I1
sS'testHasPatientVisited'
p838
I1
sS'testGetReportsNullReportID'
p839
I1
sS'testRetriveInformation'
p840
I1
sS'testFilterByICAddress1'
p841
I1
sS'testCheckIfPatientIsActive'
p842
I1
sS'testCheckHCPIDStringMID'
p843
I1
sS'testWithSpace'
p844
I1
sS'testFilterBySiblingLastName'
p845
I1
sS'testGetBloodPressure'
p846
I1
sS'testGetPatientUser'
p847
I1
sS'testGetNoSecurityQuestion'
p848
I1
sS'testEditAppt'
p849
I1
sS'testValidationBadCodeZeroLength'
p850
I0
sS'testLogViewLabProcedureNoOfficeVisitSelected'
p851
I1
sS'testLabProcedureFormLabProcedureController'
p852
I1
sS'testGetApptRequests'
p853
I1
sS'testGetExperts'
p854
I1
sS'testHiddenActivityFromDLHCP'
p855
I1
sS'testFilterByChildFirstNameNoResult'
p856
I1
sS'testBill'
p857
I0
sS'testGetConfidenceIntervalLower'
p858
I0
sS'testRemoveLabProcedure'
p859
I1
sS'testHouseholdSmokingStatusDescription'
p860
I1
sS'testGetDLCHPsFor'
p861
I1
sS'testRemoveAppt'
p862
I1
sS'testFilterByGenderNoResult'
p863
I1
sS'testDefaultNoList'
p864
I1
sS'testFilterByCity1'
p865
I1
sS'testAssignDuplicate'
p866
I1
sS'testFilterByCity2'
p867
I1
sS'testSetNullMID'
p868
I1
sS'testPatientWithLongLastName'
p869
I1
sS'testSetOfficeVisitID'
p870
I0
sS'testFilterByLowerAge'
p871
I1
sS'testCheckHCPIDBadMID'
p872
I1
sS'testPayBillWithCC'
p873
I1
sS'testSetLabProcedureToReceivedStatus'
p874
I1
sS'testValidChild'
p875
I1
sS'testEditNonExistentApptType'
p876
I1
sS'testInvalidOfficeVisitID'
p877
I0
sS'testGetRecordsReleaseByID'
p878
I1
sS'testComparatorEvil'
p879
I1
sS'testFilterByLowerAgeNoResult'
p880
I1
sS'testGetApptRequestsFor'
p881
I1
sS'testUpdate'
p882
I1
sS'testGetReportRequestForID4'
p883
I1
sS'testAddHospitalException'
p884
I0
sS'testGetAvailableHospitalsBadMID'
p885
I1
sS'testGetReportRequestForID3'
p886
I1
sS'testRecordResults'
p887
I1
sS'testFilterByStateNoResult'
p888
I1
sS'testNoNegative'
p889
I1
sS'testIsDependent'
p890
I1
sS'testassignPatient'
p891
I1
sS'testGetStatus'
p892
I0
sS'testDateWithSpace'
p893
I1
sS'testLocalization'
p894
I0
sS'testPartialPatient'
p895
I0
sS'testNoProblemsDependentLog'
p896
I1
sS'testInsertReport2'
p897
I1
sS'testFilterByParentFirstName2'
p898
I1
sS'testTriglyceride'
p899
I0
sS'testAddNDCode'
p900
I1
sS'testCSVParseHeader'
p901
I1
sS'testGetID'
p902
I0
sS'testBadICDLetters'
p903
I1
sS'testGetChildrenWithMom'
p904
I1
sS'testGetReviews'
p905
I1
sS'testGetUserNameException'
p906
I0
sS'testCheckDeclaredHCPException'
p907
I0
sS'testGetBillWithOVId'
p908
I1
sS'testHospitalNameGood'
p909
I1
sS'testGetHeight'
p910
I1
sS'testValidationBadCodeLength'
p911
I0
sS'testEmptyCSV'
p912
I0
sS'testFindWithString'
p913
I1
sS'testEditPatientException'
p914
I0
sS'testGetRepresenteeList'
p915
I1
sS'testParseString'
p916
I1
sS'testRecordResultsDBException'
p917
I1
sS'testGetAllHealthRecordsByHospital'
p918
I1
sS'testLabProcedureFormLabProcedureControllerNullLabProcedure'
p919
I1
sS'testInvalidPSS'
p920
I1
sS'testGetCommentary'
p921
I0
sS'testInvalidUpdatedDate'
p922
I0
sS'testGetSpecificReport3CheckDetails'
p923
I1
sS'testSmallMID'
p924
I1
sS'testDenyClaim'
p925
I1
sS'testSearchForPersonnelWithName'
p926
I1
sS'testGetSend'
p927
I1
sS'testEditPersonnelSpecialty'
p928
I1
sS'testAddHospital'
p929
I1
sS'testSetLabProcedureID'
p930
I0
sS'warning'
p931
I1
sS'testAddEmptyPersonnel'
p932
I1
sS'testAddOfficeVisitWithInvalidDateAndFacesContext'
p933
I1
sS'testRole'
p934
I0
sS'testGetSelectedVisitWithNullRequest'
p935
I1
sS'testGetAllergyException'
p936
I0
sS'testTooLong'
p937
I1
sS'testGood'
p938
I1
sS'testGetAllAccesses'
p939
I1
sS'testFilterByICName'
p940
I1
sS'testGetOfficeVisitsForPatient'
p941
I1
sS'testUpdateAddress'
p942
I1
sS'testOccupiedBy'
p943
I0
sS'testDoesNotExist'
p944
I1
sS'testGetBothParents'
p945
I1
sS'testAppointmentConflict'
p946
I1
sS'testAB'
p947
I1
sS'testGetHospitalByWard'
p948
I0
sS'testRealProductionDriver'
p949
I1
sS'testPatientSmokingStatusDescriptionInvalidID'
p950
I0
sS'testMockGetEmergencyRecordForPatient'
p951
I0
sS'testGetInsuranceBills'
p952
I1
sS'testGetNDCode'
p953
I1
sS'testGetAllTransactions'
p954
I1
sS'testGetLoginFailuresNoEntry'
p955
I1
sS'testAddRemoteMonitoringDataUAP'
p956
I1
sS'testGetBill'
p957
I1
sS'testMIDGood'
p958
I1
sS'testGetAllNDCodes'
p959
I1
sS'testApptEquals'
p960
I0
sS'testGetSessionPID'
p961
I1
sS'test500Gone'
p962
I1
sS'testWardCRUDServletPost'
p963
I1
sS'testGetAllPatients'
p964
I1
sS'testNameGood'
p965
I1
sS'testYearsAgo'
p966
I0
sS'testPatientTopicalNoteWithQuotationMark'
p967
I1
sS'testAddDupe'
p968
I1
sS'testNoProblems'
p969
I1
sS'testUpdateHospitalException'
p970
I0
sS'testSendException'
p971
I0
sS'testMatchWrongFormat'
p972
I1
sS'testNoFailCloseConnection'
p973
I1
sS'testSetDependency'
p974
I0
sS'testFuzzySearchForPatientDeactivated'
p975
I1
sS'testGoodFormat'
p976
I1
sS'testDeclareHCPException'
p977
I1
sS'testFilterByInsuranceZip'
p978
I1
sS'testInWard'
p979
I0
sS'testOperationProfileException'
p980
I1
sS'testCheckGender'
p981
I1
sS'testIsRemovableBadLong'
p982
I1
sS'testSurveyResultBean'
p983
I0
sS'testIsReassignableBadLong'
p984
I1
sS'testAddConflicts'
p985
I1
s.